; Function Attrs: mustprogress uwtable
define void @_ZNK32pxrInternal_v0_24__pxrReserved__13Usd_CrateData22ListTimeSamplesForPathERKNS_7SdfPathE(ptr dead_on_unwind noalias writable sret(%"class.std::set") align 8 %0, ptr noundef nonnull readonly align 8 captures(none) dereferenceable(32) %1, ptr noundef nonnull align 4 dereferenceable(8) %2) unnamed_addr #3 align 2 {
  %4 = getelementptr inbounds nuw i8, ptr %1, i64 24
  %5 = load ptr, ptr %4, align 8
  %6 = tail call noundef nonnull align 8 dereferenceable(24) ptr @_ZNK32pxrInternal_v0_24__pxrReserved__17Usd_CrateDataImpl23_ListTimeSamplesForPathERKNS_7SdfPathE(ptr noundef nonnull align 8 dereferenceable(96) %5, ptr noundef nonnull align 4 dereferenceable(8) %2), !noalias !40
  %7 = load ptr, ptr %6, align 8, !noalias !40
  %8 = getelementptr inbounds nuw i8, ptr %6, i64 8
  %9 = load ptr, ptr %8, align 8, !noalias !40
  tail call void @_ZNSt3setIdSt4lessIdESaIdEEC2IN9__gnu_cxx17__normal_iteratorIPKdSt6vectorIdS2_EEEEET_SC_(ptr noundef nonnull align 8 dereferenceable(48) %0, ptr %7, ptr %9)
  ret void
}